target datalayout = "e-m:e-p270:32:32-p271:32:32-p272:64:64-i64:64-i128:128-f80:128-n8:16:32:64-S128"
target triple = "x86_64-pc-linux-gnu"

@.str.214 = private unnamed_addr constant [17 x i8] c"fcntl get failed\00", align 1
@.str.215 = private unnamed_addr constant [17 x i8] c"fcntl set failed\00", align 1

; Function Attrs: inlinehint nounwind uwtable
define internal void @tcp_set_nonblocking(ptr noundef %0) #2 {
  %2 = alloca ptr, align 8
  %3 = alloca i32, align 4
  store ptr %0, ptr %2, align 8, !tbaa !43
  call void @llvm.lifetime.start.p0(i64 4, ptr %3) #13
  %4 = load ptr, ptr %2, align 8, !tbaa !43
  %5 = load i32, ptr %4, align 4, !tbaa !8
  %6 = call i32 (i32, i32, ...) @fcntl(i32 noundef %5, i32 noundef 3, i32 noundef 0)
  store i32 %6, ptr %3, align 4, !tbaa !8
  %7 = load i32, ptr %3, align 4, !tbaa !8
  %8 = icmp slt i32 %7, 0
  br i1 %8, label %9, label %10

9:                                                ; preds = %1
  call void @err_sys_with_errno(ptr noundef @.str.214) #16
  unreachable

10:                                               ; preds = %1
  %11 = load ptr, ptr %2, align 8, !tbaa !43
  %12 = load i32, ptr %11, align 4, !tbaa !8
  %13 = load i32, ptr %3, align 4, !tbaa !8
  %14 = or i32 %13, 2048
  %15 = call i32 (i32, i32, ...) @fcntl(i32 noundef %12, i32 noundef 4, i32 noundef %14)
  store i32 %15, ptr %3, align 4, !tbaa !8
  %16 = load i32, ptr %3, align 4, !tbaa !8
  %17 = icmp slt i32 %16, 0
  br i1 %17, label %18, label %19

18:                                               ; preds = %10
  call void @err_sys_with_errno(ptr noundef @.str.215) #16
  unreachable

19:                                               ; preds = %10
  call void @llvm.lifetime.end.p0(i64 4, ptr %3) #13
  ret void
}