; Function Attrs: inlinehint nounwind uwtable
define internal fastcc void @tcp_set_nonblocking(ptr noundef nonnull readonly captures(none) %0) unnamed_addr #9 {
  %2 = load i32, ptr %0, align 4, !tbaa !4
  %3 = tail call i32 (i32, i32, ...) @fcntl(i32 noundef %2, i32 noundef 3, i32 noundef 0) #20
  %4 = icmp slt i32 %3, 0
  br i1 %4, label %5, label %6

5:                                                ; preds = %1
  tail call fastcc void @err_sys_with_errno(ptr noundef nonnull @.str.214) #25
  unreachable

6:                                                ; preds = %1
  %7 = load i32, ptr %0, align 4, !tbaa !4
  %8 = or i32 %3, 2048
  %9 = tail call i32 (i32, i32, ...) @fcntl(i32 noundef %7, i32 noundef 4, i32 noundef %8) #20
  %10 = icmp slt i32 %9, 0
  br i1 %10, label %11, label %12

11:                                               ; preds = %6
  tail call fastcc void @err_sys_with_errno(ptr noundef nonnull @.str.215) #25
  unreachable

12:                                               ; preds = %6
  ret void
}